target datalayout = "e-m:e-p270:32:32-p271:32:32-p272:64:64-i64:64-i128:128-f80:128-n8:16:32:64-S128"
target triple = "x86_64-pc-linux-gnu"

%struct.quic_conn_id_st = type { i8, [20 x i8] }
%struct.ossl_list_st_rxe = type { ptr, ptr, i64 }
%union.bio_addr_st = type { %struct.sockaddr_in6, [84 x i8] }
%struct.sockaddr_in6 = type { i16, i16, i32, %struct.in6_addr, i32 }
%struct.in6_addr = type { %union.anon }
%union.anon = type { [4 x i32] }
%struct.OSSL_TIME = type { i64 }
%struct.rxe_st = type { %struct.ossl_qrx_pkt_st, %struct.anon.0, i64, i64, i64, %struct.quic_pkt_hdr_st, i64, %union.bio_addr_st, %union.bio_addr_st, %struct.OSSL_TIME, i64, i64, i64 }
%struct.ossl_qrx_pkt_st = type { ptr, ptr, ptr, i64, i64, %struct.OSSL_TIME, ptr, i64, i64 }
%struct.anon.0 = type { ptr, ptr }
%struct.quic_pkt_hdr_st = type { i32, i32, %struct.quic_conn_id_st, %struct.quic_conn_id_st, [4 x i8], ptr, i64, i64, ptr }

@.str = private unnamed_addr constant [37 x i8] c"../openssl/ssl/quic/quic_record_rx.c\00", align 1

; Function Attrs: inlinehint nounwind uwtable
define internal void @ossl_list_rxe_insert_after(ptr noundef %0, ptr noundef %1, ptr noundef %2) #3 {
  %4 = alloca ptr, align 8
  %5 = alloca ptr, align 8
  %6 = alloca ptr, align 8
  store ptr %0, ptr %4, align 8, !tbaa !40
  store ptr %1, ptr %5, align 8, !tbaa !42
  store ptr %2, ptr %6, align 8, !tbaa !42
  %7 = load ptr, ptr %5, align 8, !tbaa !42
  %8 = load ptr, ptr %6, align 8, !tbaa !42
  %9 = getelementptr inbounds nuw %struct.rxe_st, ptr %8, i32 0, i32 1
  %10 = getelementptr inbounds nuw %struct.anon.0, ptr %9, i32 0, i32 1
  store ptr %7, ptr %10, align 8, !tbaa !116
  %11 = load ptr, ptr %5, align 8, !tbaa !42
  %12 = getelementptr inbounds nuw %struct.rxe_st, ptr %11, i32 0, i32 1
  %13 = getelementptr inbounds nuw %struct.anon.0, ptr %12, i32 0, i32 0
  %14 = load ptr, ptr %13, align 8, !tbaa !114
  %15 = load ptr, ptr %6, align 8, !tbaa !42
  %16 = getelementptr inbounds nuw %struct.rxe_st, ptr %15, i32 0, i32 1
  %17 = getelementptr inbounds nuw %struct.anon.0, ptr %16, i32 0, i32 0
  store ptr %14, ptr %17, align 8, !tbaa !114
  %18 = load ptr, ptr %5, align 8, !tbaa !42
  %19 = getelementptr inbounds nuw %struct.rxe_st, ptr %18, i32 0, i32 1
  %20 = getelementptr inbounds nuw %struct.anon.0, ptr %19, i32 0, i32 0
  %21 = load ptr, ptr %20, align 8, !tbaa !114
  %22 = icmp ne ptr %21, null
  br i1 %22, label %23, label %31

23:                                               ; preds = %3
  %24 = load ptr, ptr %6, align 8, !tbaa !42
  %25 = load ptr, ptr %5, align 8, !tbaa !42
  %26 = getelementptr inbounds nuw %struct.rxe_st, ptr %25, i32 0, i32 1
  %27 = getelementptr inbounds nuw %struct.anon.0, ptr %26, i32 0, i32 0
  %28 = load ptr, ptr %27, align 8, !tbaa !114
  %29 = getelementptr inbounds nuw %struct.rxe_st, ptr %28, i32 0, i32 1
  %30 = getelementptr inbounds nuw %struct.anon.0, ptr %29, i32 0, i32 1
  store ptr %24, ptr %30, align 8, !tbaa !116
  br label %31

31:                                               ; preds = %23, %3
  %32 = load ptr, ptr %6, align 8, !tbaa !42
  %33 = load ptr, ptr %5, align 8, !tbaa !42
  %34 = getelementptr inbounds nuw %struct.rxe_st, ptr %33, i32 0, i32 1
  %35 = getelementptr inbounds nuw %struct.anon.0, ptr %34, i32 0, i32 0
  store ptr %32, ptr %35, align 8, !tbaa !114
  %36 = load ptr, ptr %4, align 8, !tbaa !40
  %37 = getelementptr inbounds nuw %struct.ossl_list_st_rxe, ptr %36, i32 0, i32 1
  %38 = load ptr, ptr %37, align 8, !tbaa !115
  %39 = load ptr, ptr %5, align 8, !tbaa !42
  %40 = icmp eq ptr %38, %39
  br i1 %40, label %41, label %45

41:                                               ; preds = %31
  %42 = load ptr, ptr %6, align 8, !tbaa !42
  %43 = load ptr, ptr %4, align 8, !tbaa !40
  %44 = getelementptr inbounds nuw %struct.ossl_list_st_rxe, ptr %43, i32 0, i32 1
  store ptr %42, ptr %44, align 8, !tbaa !115
  br label %45

45:                                               ; preds = %41, %31
  %46 = load ptr, ptr %4, align 8, !tbaa !40
  %47 = getelementptr inbounds nuw %struct.ossl_list_st_rxe, ptr %46, i32 0, i32 2
  %48 = load i64, ptr %47, align 8, !tbaa !67
  %49 = add i64 %48, 1
  store i64 %49, ptr %47, align 8, !tbaa !67
  ret void
}

; Function Attrs: inlinehint nounwind uwtable
define internal void @ossl_list_rxe_insert_head(ptr noundef %0, ptr noundef %1) #3 {
  %3 = alloca ptr, align 8
  %4 = alloca ptr, align 8
  store ptr %0, ptr %3, align 8, !tbaa !40
  store ptr %1, ptr %4, align 8, !tbaa !42
  %5 = load ptr, ptr %3, align 8, !tbaa !40
  %6 = getelementptr inbounds nuw %struct.ossl_list_st_rxe, ptr %5, i32 0, i32 0
  %7 = load ptr, ptr %6, align 8, !tbaa !113
  %8 = icmp ne ptr %7, null
  br i1 %8, label %9, label %16

9:                                                ; preds = %2
  %10 = load ptr, ptr %4, align 8, !tbaa !42
  %11 = load ptr, ptr %3, align 8, !tbaa !40
  %12 = getelementptr inbounds nuw %struct.ossl_list_st_rxe, ptr %11, i32 0, i32 0
  %13 = load ptr, ptr %12, align 8, !tbaa !113
  %14 = getelementptr inbounds nuw %struct.rxe_st, ptr %13, i32 0, i32 1
  %15 = getelementptr inbounds nuw %struct.anon.0, ptr %14, i32 0, i32 1
  store ptr %10, ptr %15, align 8, !tbaa !116
  br label %16

16:                                               ; preds = %9, %2
  %17 = load ptr, ptr %3, align 8, !tbaa !40
  %18 = getelementptr inbounds nuw %struct.ossl_list_st_rxe, ptr %17, i32 0, i32 0
  %19 = load ptr, ptr %18, align 8, !tbaa !113
  %20 = load ptr, ptr %4, align 8, !tbaa !42
  %21 = getelementptr inbounds nuw %struct.rxe_st, ptr %20, i32 0, i32 1
  %22 = getelementptr inbounds nuw %struct.anon.0, ptr %21, i32 0, i32 0
  store ptr %19, ptr %22, align 8, !tbaa !114
  %23 = load ptr, ptr %4, align 8, !tbaa !42
  %24 = getelementptr inbounds nuw %struct.rxe_st, ptr %23, i32 0, i32 1
  %25 = getelementptr inbounds nuw %struct.anon.0, ptr %24, i32 0, i32 1
  store ptr null, ptr %25, align 8, !tbaa !116
  %26 = load ptr, ptr %4, align 8, !tbaa !42
  %27 = load ptr, ptr %3, align 8, !tbaa !40
  %28 = getelementptr inbounds nuw %struct.ossl_list_st_rxe, ptr %27, i32 0, i32 0
  store ptr %26, ptr %28, align 8, !tbaa !113
  %29 = load ptr, ptr %3, align 8, !tbaa !40
  %30 = getelementptr inbounds nuw %struct.ossl_list_st_rxe, ptr %29, i32 0, i32 1
  %31 = load ptr, ptr %30, align 8, !tbaa !115
  %32 = icmp eq ptr %31, null
  br i1 %32, label %33, label %37

33:                                               ; preds = %16
  %34 = load ptr, ptr %4, align 8, !tbaa !42
  %35 = load ptr, ptr %3, align 8, !tbaa !40
  %36 = getelementptr inbounds nuw %struct.ossl_list_st_rxe, ptr %35, i32 0, i32 1
  store ptr %34, ptr %36, align 8, !tbaa !115
  br label %37

37:                                               ; preds = %33, %16
  %38 = load ptr, ptr %3, align 8, !tbaa !40
  %39 = getelementptr inbounds nuw %struct.ossl_list_st_rxe, ptr %38, i32 0, i32 2
  %40 = load i64, ptr %39, align 8, !tbaa !67
  %41 = add i64 %40, 1
  store i64 %41, ptr %39, align 8, !tbaa !67
  ret void
}

; Function Attrs: inlinehint nounwind uwtable
define internal void @ossl_list_rxe_remove(ptr noundef %0, ptr noundef %1) #3 {
  %3 = alloca ptr, align 8
  %4 = alloca ptr, align 8
  store ptr %0, ptr %3, align 8, !tbaa !40
  store ptr %1, ptr %4, align 8, !tbaa !42
  %5 = load ptr, ptr %3, align 8, !tbaa !40
  %6 = getelementptr inbounds nuw %struct.ossl_list_st_rxe, ptr %5, i32 0, i32 0
  %7 = load ptr, ptr %6, align 8, !tbaa !113
  %8 = load ptr, ptr %4, align 8, !tbaa !42
  %9 = icmp eq ptr %7, %8
  br i1 %9, label %10, label %17

10:                                               ; preds = %2
  %11 = load ptr, ptr %4, align 8, !tbaa !42
  %12 = getelementptr inbounds nuw %struct.rxe_st, ptr %11, i32 0, i32 1
  %13 = getelementptr inbounds nuw %struct.anon.0, ptr %12, i32 0, i32 0
  %14 = load ptr, ptr %13, align 8, !tbaa !114
  %15 = load ptr, ptr %3, align 8, !tbaa !40
  %16 = getelementptr inbounds nuw %struct.ossl_list_st_rxe, ptr %15, i32 0, i32 0
  store ptr %14, ptr %16, align 8, !tbaa !113
  br label %17

17:                                               ; preds = %10, %2
  %18 = load ptr, ptr %3, align 8, !tbaa !40
  %19 = getelementptr inbounds nuw %struct.ossl_list_st_rxe, ptr %18, i32 0, i32 1
  %20 = load ptr, ptr %19, align 8, !tbaa !115
  %21 = load ptr, ptr %4, align 8, !tbaa !42
  %22 = icmp eq ptr %20, %21
  br i1 %22, label %23, label %30

23:                                               ; preds = %17
  %24 = load ptr, ptr %4, align 8, !tbaa !42
  %25 = getelementptr inbounds nuw %struct.rxe_st, ptr %24, i32 0, i32 1
  %26 = getelementptr inbounds nuw %struct.anon.0, ptr %25, i32 0, i32 1
  %27 = load ptr, ptr %26, align 8, !tbaa !116
  %28 = load ptr, ptr %3, align 8, !tbaa !40
  %29 = getelementptr inbounds nuw %struct.ossl_list_st_rxe, ptr %28, i32 0, i32 1
  store ptr %27, ptr %29, align 8, !tbaa !115
  br label %30

30:                                               ; preds = %23, %17
  %31 = load ptr, ptr %4, align 8, !tbaa !42
  %32 = getelementptr inbounds nuw %struct.rxe_st, ptr %31, i32 0, i32 1
  %33 = getelementptr inbounds nuw %struct.anon.0, ptr %32, i32 0, i32 1
  %34 = load ptr, ptr %33, align 8, !tbaa !116
  %35 = icmp ne ptr %34, null
  br i1 %35, label %36, label %47

36:                                               ; preds = %30
  %37 = load ptr, ptr %4, align 8, !tbaa !42
  %38 = getelementptr inbounds nuw %struct.rxe_st, ptr %37, i32 0, i32 1
  %39 = getelementptr inbounds nuw %struct.anon.0, ptr %38, i32 0, i32 0
  %40 = load ptr, ptr %39, align 8, !tbaa !114
  %41 = load ptr, ptr %4, align 8, !tbaa !42
  %42 = getelementptr inbounds nuw %struct.rxe_st, ptr %41, i32 0, i32 1
  %43 = getelementptr inbounds nuw %struct.anon.0, ptr %42, i32 0, i32 1
  %44 = load ptr, ptr %43, align 8, !tbaa !116
  %45 = getelementptr inbounds nuw %struct.rxe_st, ptr %44, i32 0, i32 1
  %46 = getelementptr inbounds nuw %struct.anon.0, ptr %45, i32 0, i32 0
  store ptr %40, ptr %46, align 8, !tbaa !114
  br label %47

47:                                               ; preds = %36, %30
  %48 = load ptr, ptr %4, align 8, !tbaa !42
  %49 = getelementptr inbounds nuw %struct.rxe_st, ptr %48, i32 0, i32 1
  %50 = getelementptr inbounds nuw %struct.anon.0, ptr %49, i32 0, i32 0
  %51 = load ptr, ptr %50, align 8, !tbaa !114
  %52 = icmp ne ptr %51, null
  br i1 %52, label %53, label %64

53:                                               ; preds = %47
  %54 = load ptr, ptr %4, align 8, !tbaa !42
  %55 = getelementptr inbounds nuw %struct.rxe_st, ptr %54, i32 0, i32 1
  %56 = getelementptr inbounds nuw %struct.anon.0, ptr %55, i32 0, i32 1
  %57 = load ptr, ptr %56, align 8, !tbaa !116
  %58 = load ptr, ptr %4, align 8, !tbaa !42
  %59 = getelementptr inbounds nuw %struct.rxe_st, ptr %58, i32 0, i32 1
  %60 = getelementptr inbounds nuw %struct.anon.0, ptr %59, i32 0, i32 0
  %61 = load ptr, ptr %60, align 8, !tbaa !114
  %62 = getelementptr inbounds nuw %struct.rxe_st, ptr %61, i32 0, i32 1
  %63 = getelementptr inbounds nuw %struct.anon.0, ptr %62, i32 0, i32 1
  store ptr %57, ptr %63, align 8, !tbaa !116
  br label %64

64:                                               ; preds = %53, %47
  %65 = load ptr, ptr %3, align 8, !tbaa !40
  %66 = getelementptr inbounds nuw %struct.ossl_list_st_rxe, ptr %65, i32 0, i32 2
  %67 = load i64, ptr %66, align 8, !tbaa !67
  %68 = add i64 %67, -1
  store i64 %68, ptr %66, align 8, !tbaa !67
  %69 = load ptr, ptr %4, align 8, !tbaa !42
  %70 = getelementptr inbounds nuw %struct.rxe_st, ptr %69, i32 0, i32 1
  call void @llvm.memset.p0.i64(ptr align 8 %70, i8 0, i64 16, i1 false)
  ret void
}

; Function Attrs: inlinehint nounwind uwtable
define internal ptr @ossl_list_rxe_prev(ptr noundef %0) #3 {
  %2 = alloca ptr, align 8
  store ptr %0, ptr %2, align 8, !tbaa !42
  %3 = load ptr, ptr %2, align 8, !tbaa !42
  %4 = getelementptr inbounds nuw %struct.rxe_st, ptr %3, i32 0, i32 1
  %5 = getelementptr inbounds nuw %struct.anon.0, ptr %4, i32 0, i32 1
  %6 = load ptr, ptr %5, align 8, !tbaa !116
  ret ptr %6
}

; Function Attrs: nounwind uwtable
define internal ptr @qrx_resize_rxe(ptr noundef %0, ptr noundef %1, i64 noundef %2) #0 {
  %4 = alloca ptr, align 8
  %5 = alloca ptr, align 8
  %6 = alloca ptr, align 8
  %7 = alloca i64, align 8
  %8 = alloca ptr, align 8
  %9 = alloca ptr, align 8
  %10 = alloca i32, align 4
  store ptr %0, ptr %5, align 8, !tbaa !40
  store ptr %1, ptr %6, align 8, !tbaa !42
  store i64 %2, ptr %7, align 8, !tbaa !17
  call void @llvm.lifetime.start.p0(i64 8, ptr %8) #8
  call void @llvm.lifetime.start.p0(i64 8, ptr %9) #8
  %11 = load ptr, ptr %6, align 8, !tbaa !42
  %12 = icmp eq ptr %11, null
  br i1 %12, label %13, label %14

13:                                               ; preds = %3
  store ptr null, ptr %4, align 8
  store i32 1, ptr %10, align 4
  br label %69

14:                                               ; preds = %3
  %15 = load i64, ptr %7, align 8, !tbaa !17
  %16 = icmp uge i64 %15, -465
  br i1 %16, label %17, label %18

17:                                               ; preds = %14
  store ptr null, ptr %4, align 8
  store i32 1, ptr %10, align 4
  br label %69

18:                                               ; preds = %14
  %19 = load ptr, ptr %6, align 8, !tbaa !42
  %20 = call ptr @ossl_list_rxe_prev(ptr noundef %19)
  store ptr %20, ptr %9, align 8, !tbaa !42
  %21 = load ptr, ptr %5, align 8, !tbaa !40
  %22 = load ptr, ptr %6, align 8, !tbaa !42
  call void @ossl_list_rxe_remove(ptr noundef %21, ptr noundef %22)
  %23 = load ptr, ptr %6, align 8, !tbaa !42
  %24 = getelementptr inbounds nuw %struct.rxe_st, ptr %23, i32 0, i32 4
  %25 = load i64, ptr %24, align 8, !tbaa !70
  %26 = icmp eq i64 %25, 0
  %27 = zext i1 %26 to i32
  %28 = icmp ne i32 %27, 0
  %29 = xor i1 %28, true
  %30 = xor i1 %29, true
  %31 = zext i1 %30 to i32
  %32 = sext i32 %31 to i64
  %33 = call i64 @llvm.expect.i64(i64 %32, i64 1)
  %34 = icmp ne i64 %33, 0
  br i1 %34, label %36, label %35

35:                                               ; preds = %18
  store ptr null, ptr %4, align 8
  store i32 1, ptr %10, align 4
  br label %69

36:                                               ; preds = %18
  %37 = load ptr, ptr %6, align 8, !tbaa !42
  %38 = load i64, ptr %7, align 8, !tbaa !17
  %39 = add i64 464, %38
  %40 = call ptr @CRYPTO_realloc(ptr noundef %37, i64 noundef %39, ptr noundef @.str, i32 noundef 397)
  store ptr %40, ptr %8, align 8, !tbaa !42
  %41 = load ptr, ptr %8, align 8, !tbaa !42
  %42 = icmp eq ptr %41, null
  br i1 %42, label %43, label %54

43:                                               ; preds = %36
  %44 = load ptr, ptr %9, align 8, !tbaa !42
  %45 = icmp eq ptr %44, null
  br i1 %45, label %46, label %49

46:                                               ; preds = %43
  %47 = load ptr, ptr %5, align 8, !tbaa !40
  %48 = load ptr, ptr %6, align 8, !tbaa !42
  call void @ossl_list_rxe_insert_head(ptr noundef %47, ptr noundef %48)
  br label %53

49:                                               ; preds = %43
  %50 = load ptr, ptr %5, align 8, !tbaa !40
  %51 = load ptr, ptr %9, align 8, !tbaa !42
  %52 = load ptr, ptr %6, align 8, !tbaa !42
  call void @ossl_list_rxe_insert_after(ptr noundef %50, ptr noundef %51, ptr noundef %52)
  br label %53

53:                                               ; preds = %49, %46
  store ptr null, ptr %4, align 8
  store i32 1, ptr %10, align 4
  br label %69

54:                                               ; preds = %36
  %55 = load ptr, ptr %9, align 8, !tbaa !42
  %56 = icmp eq ptr %55, null
  br i1 %56, label %57, label %60

57:                                               ; preds = %54
  %58 = load ptr, ptr %5, align 8, !tbaa !40
  %59 = load ptr, ptr %8, align 8, !tbaa !42
  call void @ossl_list_rxe_insert_head(ptr noundef %58, ptr noundef %59)
  br label %64

60:                                               ; preds = %54
  %61 = load ptr, ptr %5, align 8, !tbaa !40
  %62 = load ptr, ptr %9, align 8, !tbaa !42
  %63 = load ptr, ptr %8, align 8, !tbaa !42
  call void @ossl_list_rxe_insert_after(ptr noundef %61, ptr noundef %62, ptr noundef %63)
  br label %64

64:                                               ; preds = %60, %57
  %65 = load i64, ptr %7, align 8, !tbaa !17
  %66 = load ptr, ptr %8, align 8, !tbaa !42
  %67 = getelementptr inbounds nuw %struct.rxe_st, ptr %66, i32 0, i32 3
  store i64 %65, ptr %67, align 8, !tbaa !138
  %68 = load ptr, ptr %8, align 8, !tbaa !42
  store ptr %68, ptr %4, align 8
  store i32 1, ptr %10, align 4
  br label %69

69:                                               ; preds = %64, %53, %35, %17, %13
  call void @llvm.lifetime.end.p0(i64 8, ptr %9) #8
  call void @llvm.lifetime.end.p0(i64 8, ptr %8) #8
  %70 = load ptr, ptr %4, align 8
  ret ptr %70
}

; Function Attrs: nounwind uwtable
define internal ptr @qrx_reserve_rxe(ptr noundef %0, ptr noundef %1, i64 noundef %2) #0 {
  %4 = alloca ptr, align 8
  %5 = alloca ptr, align 8
  %6 = alloca ptr, align 8
  %7 = alloca i64, align 8
  store ptr %0, ptr %5, align 8, !tbaa !40
  store ptr %1, ptr %6, align 8, !tbaa !42
  store i64 %2, ptr %7, align 8, !tbaa !17
  %8 = load ptr, ptr %6, align 8, !tbaa !42
  %9 = getelementptr inbounds nuw %struct.rxe_st, ptr %8, i32 0, i32 3
  %10 = load i64, ptr %9, align 8, !tbaa !138
  %11 = load i64, ptr %7, align 8, !tbaa !17
  %12 = icmp uge i64 %10, %11
  br i1 %12, label %13, label %15

13:                                               ; preds = %3
  %14 = load ptr, ptr %6, align 8, !tbaa !42
  store ptr %14, ptr %4, align 8
  br label %20

15:                                               ; preds = %3
  %16 = load ptr, ptr %5, align 8, !tbaa !40
  %17 = load ptr, ptr %6, align 8, !tbaa !42
  %18 = load i64, ptr %7, align 8, !tbaa !17
  %19 = call ptr @qrx_resize_rxe(ptr noundef %16, ptr noundef %17, i64 noundef %18)
  store ptr %19, ptr %4, align 8
  br label %20

20:                                               ; preds = %15, %13
  %21 = load ptr, ptr %4, align 8
  ret ptr %21
}