; Function Attrs: nounwind uwtable
define internal fastcc ptr @qrx_reserve_rxe(ptr noundef captures(none) %0, ptr noundef %1, i64 noundef %2) unnamed_addr #0 {
  %4 = getelementptr inbounds nuw i8, ptr %1, i64 96
  %5 = load i64, ptr %4, align 8, !tbaa !69
  %.not = icmp ult i64 %5, %2
  br i1 %.not, label %6, label %qrx_resize_rxe.exit

6:                                                ; preds = %3
  %7 = icmp ugt i64 %2, -466
  br i1 %7, label %qrx_resize_rxe.exit, label %8

8:                                                ; preds = %6
  %9 = getelementptr i8, ptr %1, i64 80
  %.val.i = load ptr, ptr %9, align 8, !tbaa !44
  %10 = load ptr, ptr %0, align 8, !tbaa !31
  %11 = icmp eq ptr %10, %1
  br i1 %11, label %12, label %15

12:                                               ; preds = %8
  %13 = getelementptr inbounds nuw i8, ptr %1, i64 72
  %14 = load ptr, ptr %13, align 8, !tbaa !32
  store ptr %14, ptr %0, align 8, !tbaa !31
  br label %15

15:                                               ; preds = %12, %8
  %16 = getelementptr inbounds nuw i8, ptr %0, i64 8
  %17 = load ptr, ptr %16, align 8, !tbaa !43
  %18 = icmp eq ptr %17, %1
  br i1 %18, label %19, label %._crit_edge.i.i

19:                                               ; preds = %15
  store ptr %.val.i, ptr %16, align 8, !tbaa !43
  br label %._crit_edge.i.i

._crit_edge.i.i:                                  ; preds = %19, %15
  %20 = getelementptr inbounds nuw i8, ptr %1, i64 72
  %.not.i.i = icmp eq ptr %.val.i, null
  %.pre19.i.i = load ptr, ptr %20, align 8, !tbaa !32
  br i1 %.not.i.i, label %23, label %21

21:                                               ; preds = %._crit_edge.i.i
  %22 = getelementptr inbounds nuw i8, ptr %.val.i, i64 72
  store ptr %.pre19.i.i, ptr %22, align 8, !tbaa !32
  br label %23

23:                                               ; preds = %21, %._crit_edge.i.i
  %.not18.i.i = icmp eq ptr %.pre19.i.i, null
  br i1 %.not18.i.i, label %ossl_list_rxe_remove.exit.i, label %24

24:                                               ; preds = %23
  %25 = getelementptr inbounds nuw i8, ptr %.pre19.i.i, i64 80
  store ptr %.val.i, ptr %25, align 8, !tbaa !44
  br label %ossl_list_rxe_remove.exit.i

ossl_list_rxe_remove.exit.i:                      ; preds = %24, %23
  %26 = getelementptr inbounds nuw i8, ptr %0, i64 16
  %27 = load i64, ptr %26, align 8, !tbaa !45
  %28 = add i64 %27, -1
  store i64 %28, ptr %26, align 8, !tbaa !45
  tail call void @llvm.memset.p0.i64(ptr noundef nonnull align 8 dereferenceable(16) %20, i8 0, i64 16, i1 false)
  %29 = getelementptr inbounds nuw i8, ptr %1, i64 104
  %30 = load i64, ptr %29, align 8, !tbaa !71
  %31 = icmp eq i64 %30, 0
  br i1 %31, label %32, label %qrx_resize_rxe.exit, !prof !76

32:                                               ; preds = %ossl_list_rxe_remove.exit.i
  %33 = add nuw i64 %2, 464
  %34 = tail call ptr @CRYPTO_realloc(ptr noundef nonnull %1, i64 noundef %33, ptr noundef nonnull @.str, i32 noundef 397) #11
  %35 = icmp eq ptr %34, null
  br i1 %35, label %36, label %58

36:                                               ; preds = %32
  br i1 %.not.i.i, label %37, label %47

37:                                               ; preds = %36
  %38 = load ptr, ptr %0, align 8, !tbaa !31
  %.not.i28.i = icmp eq ptr %38, null
  br i1 %.not.i28.i, label %41, label %39

39:                                               ; preds = %37
  %40 = getelementptr inbounds nuw i8, ptr %38, i64 80
  store ptr %1, ptr %40, align 8, !tbaa !44
  br label %41

41:                                               ; preds = %39, %37
  store ptr %38, ptr %20, align 8, !tbaa !32
  store ptr null, ptr %9, align 8, !tbaa !44
  store ptr %1, ptr %0, align 8, !tbaa !31
  %42 = load ptr, ptr %16, align 8, !tbaa !43
  %43 = icmp eq ptr %42, null
  br i1 %43, label %44, label %ossl_list_rxe_insert_head.exit.i

44:                                               ; preds = %41
  store ptr %1, ptr %16, align 8, !tbaa !43
  br label %ossl_list_rxe_insert_head.exit.i

ossl_list_rxe_insert_head.exit.i:                 ; preds = %44, %41
  %45 = load i64, ptr %26, align 8, !tbaa !45
  %46 = add i64 %45, 1
  store i64 %46, ptr %26, align 8, !tbaa !45
  br label %qrx_resize_rxe.exit

47:                                               ; preds = %36
  store ptr %.val.i, ptr %9, align 8, !tbaa !44
  %48 = getelementptr inbounds nuw i8, ptr %.val.i, i64 72
  %49 = load ptr, ptr %48, align 8, !tbaa !32
  store ptr %49, ptr %20, align 8, !tbaa !32
  %.not.i29.i = icmp eq ptr %49, null
  br i1 %.not.i29.i, label %52, label %50

50:                                               ; preds = %47
  %51 = getelementptr inbounds nuw i8, ptr %49, i64 80
  store ptr %1, ptr %51, align 8, !tbaa !44
  br label %52

52:                                               ; preds = %50, %47
  store ptr %1, ptr %48, align 8, !tbaa !32
  %53 = load ptr, ptr %16, align 8, !tbaa !43
  %54 = icmp eq ptr %53, %.val.i
  br i1 %54, label %55, label %ossl_list_rxe_insert_after.exit.i

55:                                               ; preds = %52
  store ptr %1, ptr %16, align 8, !tbaa !43
  br label %ossl_list_rxe_insert_after.exit.i

ossl_list_rxe_insert_after.exit.i:                ; preds = %55, %52
  %56 = load i64, ptr %26, align 8, !tbaa !45
  %57 = add i64 %56, 1
  store i64 %57, ptr %26, align 8, !tbaa !45
  br label %qrx_resize_rxe.exit

58:                                               ; preds = %32
  br i1 %.not.i.i, label %59, label %68

59:                                               ; preds = %58
  %60 = load ptr, ptr %0, align 8, !tbaa !31
  %.not.i30.i = icmp eq ptr %60, null
  br i1 %.not.i30.i, label %63, label %61

61:                                               ; preds = %59
  %62 = getelementptr inbounds nuw i8, ptr %60, i64 80
  store ptr %34, ptr %62, align 8, !tbaa !44
  br label %63

63:                                               ; preds = %61, %59
  %64 = getelementptr inbounds nuw i8, ptr %34, i64 72
  store ptr %60, ptr %64, align 8, !tbaa !32
  %65 = getelementptr inbounds nuw i8, ptr %34, i64 80
  store ptr null, ptr %65, align 8, !tbaa !44
  store ptr %34, ptr %0, align 8, !tbaa !31
  %66 = load ptr, ptr %16, align 8, !tbaa !43
  %67 = icmp eq ptr %66, null
  br i1 %67, label %ossl_list_rxe_insert_head.exit31.sink.split.i, label %ossl_list_rxe_insert_head.exit31.i

68:                                               ; preds = %58
  %69 = getelementptr inbounds nuw i8, ptr %34, i64 72
  %70 = getelementptr inbounds nuw i8, ptr %34, i64 80
  store ptr %.val.i, ptr %70, align 8, !tbaa !44
  %71 = getelementptr inbounds nuw i8, ptr %.val.i, i64 72
  %72 = load ptr, ptr %71, align 8, !tbaa !32
  store ptr %72, ptr %69, align 8, !tbaa !32
  %.not.i32.i = icmp eq ptr %72, null
  br i1 %.not.i32.i, label %75, label %73

73:                                               ; preds = %68
  %74 = getelementptr inbounds nuw i8, ptr %72, i64 80
  store ptr %34, ptr %74, align 8, !tbaa !44
  br label %75

75:                                               ; preds = %73, %68
  store ptr %34, ptr %71, align 8, !tbaa !32
  %76 = load ptr, ptr %16, align 8, !tbaa !43
  %77 = icmp eq ptr %76, %.val.i
  br i1 %77, label %ossl_list_rxe_insert_head.exit31.sink.split.i, label %ossl_list_rxe_insert_head.exit31.i

ossl_list_rxe_insert_head.exit31.sink.split.i:    ; preds = %75, %63
  store ptr %34, ptr %16, align 8, !tbaa !43
  br label %ossl_list_rxe_insert_head.exit31.i

ossl_list_rxe_insert_head.exit31.i:               ; preds = %ossl_list_rxe_insert_head.exit31.sink.split.i, %75, %63
  %storemerge.in.i = load i64, ptr %26, align 8, !tbaa !45
  %storemerge.i = add i64 %storemerge.in.i, 1
  store i64 %storemerge.i, ptr %26, align 8, !tbaa !45
  %78 = getelementptr inbounds nuw i8, ptr %34, i64 96
  store i64 %2, ptr %78, align 8, !tbaa !69
  br label %qrx_resize_rxe.exit

qrx_resize_rxe.exit:                              ; preds = %ossl_list_rxe_insert_head.exit31.i, %ossl_list_rxe_insert_after.exit.i, %ossl_list_rxe_insert_head.exit.i, %ossl_list_rxe_remove.exit.i, %6, %3
  %.0 = phi ptr [ %1, %3 ], [ %34, %ossl_list_rxe_insert_head.exit31.i ], [ null, %6 ], [ null, %ossl_list_rxe_remove.exit.i ], [ null, %ossl_list_rxe_insert_after.exit.i ], [ null, %ossl_list_rxe_insert_head.exit.i ]
  ret ptr %.0
}